target datalayout = "e-m:e-p270:32:32-p271:32:32-p272:64:64-i64:64-i128:128-f80:128-n8:16:32:64-S128"
target triple = "x86_64-pc-linux-gnu"

%"class.pxrInternal_v0_24__pxrReserved__::TfToken" = type { %"class.pxrInternal_v0_24__pxrReserved__::TfPointerAndBits" }
%"class.pxrInternal_v0_24__pxrReserved__::TfPointerAndBits" = type { ptr }
%"class.pxrInternal_v0_24__pxrReserved__::TfType" = type { ptr }
%"struct.pxrInternal_v0_24__pxrReserved__::UsdSchemaRegistry::SchemaInfo" = type { %"class.pxrInternal_v0_24__pxrReserved__::TfToken", %"class.pxrInternal_v0_24__pxrReserved__::TfType", %"class.pxrInternal_v0_24__pxrReserved__::TfToken", i32, i32 }

; Function Attrs: mustprogress uwtable
define ptr @_ZN32pxrInternal_v0_24__pxrReserved__17UsdSchemaRegistry25GetTypeFromSchemaTypeNameERKNS_7TfTokenE(ptr noundef nonnull align 8 dereferenceable(8) %0) #0 align 2 {
  %2 = alloca %"class.pxrInternal_v0_24__pxrReserved__::TfType", align 8
  %3 = alloca ptr, align 8
  %4 = alloca ptr, align 8
  store ptr %0, ptr %3, align 8
  %5 = load ptr, ptr %3, align 8
  %6 = call noundef ptr @_ZN32pxrInternal_v0_24__pxrReserved__17UsdSchemaRegistry14FindSchemaInfoERKNS_7TfTokenE(ptr noundef nonnull align 8 dereferenceable(8) %5)
  store ptr %6, ptr %4, align 8
  %7 = load ptr, ptr %4, align 8
  %8 = icmp ne ptr %7, null
  br i1 %8, label %9, label %12

9:                                                ; preds = %1
  %10 = load ptr, ptr %4, align 8
  %11 = getelementptr inbounds nuw %"struct.pxrInternal_v0_24__pxrReserved__::UsdSchemaRegistry::SchemaInfo", ptr %10, i32 0, i32 1
  call void @llvm.memcpy.p0.p0.i64(ptr align 8 %2, ptr align 8 %11, i64 8, i1 false)
  br label %13

12:                                               ; preds = %1
  call void @_ZN32pxrInternal_v0_24__pxrReserved__6TfTypeC1Ev(ptr noundef nonnull align 8 dereferenceable(8) %2)
  br label %13

13:                                               ; preds = %12, %9
  %14 = getelementptr inbounds nuw %"class.pxrInternal_v0_24__pxrReserved__::TfType", ptr %2, i32 0, i32 0
  %15 = load ptr, ptr %14, align 8
  ret ptr %15
}